target datalayout = "e-m:e-p270:32:32-p271:32:32-p272:64:64-i64:64-i128:128-f80:128-n8:16:32:64-S128"
target triple = "x86_64-pc-linux-gnu"

%"class.vas::ot::RgbHistogram" = type <{ ptr, i32, i32, i32, [4 x i8] }>
%"class.cv::Scalar_" = type { %"class.cv::Vec" }
%"class.cv::Vec" = type { %"class.cv::Matx" }
%"class.cv::Matx" = type { [4 x double] }
%"class.cv::Mat" = type { i32, i32, i32, i32, ptr, ptr, ptr, ptr, ptr, ptr, %"struct.cv::MatSize", %"struct.cv::MatStep" }
%"struct.cv::MatSize" = type { ptr }
%"struct.cv::MatStep" = type { ptr, [2 x i64] }
%"class.cv::Vec.2" = type { %"class.cv::Matx.3" }
%"class.cv::Matx.3" = type { [4 x i8] }

; Function Attrs: inlinehint mustprogress nounwind uwtable
define linkonce_odr hidden void @_ZN2cv4MatxIdLi4ELi1EEC2Ev(ptr noundef nonnull align 8 dereferenceable(32) %0) unnamed_addr #7 comdat align 2 {
  %2 = alloca ptr, align 8
  %3 = alloca i32, align 4
  store ptr %0, ptr %2, align 8, !tbaa !57
  %4 = load ptr, ptr %2, align 8
  call void @llvm.lifetime.start.p0(i64 4, ptr %3) #8
  store i32 0, ptr %3, align 4, !tbaa !8
  br label %5

5:                                                ; preds = %14, %1
  %6 = load i32, ptr %3, align 4, !tbaa !8
  %7 = icmp slt i32 %6, 4
  br i1 %7, label %9, label %8

8:                                                ; preds = %5
  call void @llvm.lifetime.end.p0(i64 4, ptr %3) #8
  br label %17

9:                                                ; preds = %5
  %10 = getelementptr inbounds nuw %"class.cv::Matx", ptr %4, i32 0, i32 0
  %11 = load i32, ptr %3, align 4, !tbaa !8
  %12 = sext i32 %11 to i64
  %13 = getelementptr inbounds [4 x double], ptr %10, i64 0, i64 %12
  store double 0.000000e+00, ptr %13, align 8, !tbaa !22
  br label %14

14:                                               ; preds = %9
  %15 = load i32, ptr %3, align 4, !tbaa !8
  %16 = add nsw i32 %15, 1
  store i32 %16, ptr %3, align 4, !tbaa !8
  br label %5, !llvm.loop !59

17:                                               ; preds = %8
  ret void
}

; Function Attrs: inlinehint mustprogress nounwind uwtable
define linkonce_odr hidden noundef nonnull align 1 dereferenceable(1) ptr @_ZNK2cv3VecIhLi4EEixEi(ptr noundef nonnull align 1 dereferenceable(4) %0, i32 noundef %1) #7 comdat align 2 {
  %3 = alloca ptr, align 8
  %4 = alloca i32, align 4
  store ptr %0, ptr %3, align 8, !tbaa !46
  store i32 %1, ptr %4, align 4, !tbaa !8
  %5 = load ptr, ptr %3, align 8
  %6 = getelementptr inbounds nuw %"class.cv::Matx.3", ptr %5, i32 0, i32 0
  %7 = load i32, ptr %4, align 4, !tbaa !8
  %8 = sext i32 %7 to i64
  %9 = getelementptr inbounds [4 x i8], ptr %6, i64 0, i64 %8
  ret ptr %9
}

; Function Attrs: inlinehint mustprogress nounwind uwtable
define linkonce_odr hidden noundef ptr @_ZNK2cv3Mat3ptrINS_3VecIhLi4EEEEEPKT_i(ptr noundef nonnull align 8 dereferenceable(96) %0, i32 noundef %1) #7 comdat align 2 {
  %3 = alloca ptr, align 8
  %4 = alloca i32, align 4
  store ptr %0, ptr %3, align 8, !tbaa !16
  store i32 %1, ptr %4, align 4, !tbaa !8
  %5 = load ptr, ptr %3, align 8
  %6 = getelementptr inbounds nuw %"class.cv::Mat", ptr %5, i32 0, i32 4
  %7 = load ptr, ptr %6, align 8, !tbaa !24
  %8 = getelementptr inbounds nuw %"class.cv::Mat", ptr %5, i32 0, i32 11
  %9 = getelementptr inbounds nuw %"struct.cv::MatStep", ptr %8, i32 0, i32 0
  %10 = load ptr, ptr %9, align 8, !tbaa !33
  %11 = getelementptr inbounds i64, ptr %10, i64 0
  %12 = load i64, ptr %11, align 8, !tbaa !34
  %13 = load i32, ptr %4, align 4, !tbaa !8
  %14 = sext i32 %13 to i64
  %15 = mul i64 %12, %14
  %16 = getelementptr inbounds nuw i8, ptr %7, i64 %15
  ret ptr %16
}

; Function Attrs: inlinehint mustprogress uwtable
define linkonce_odr hidden void @_ZN2cv3VecIdLi4EEC2Ev(ptr noundef nonnull align 8 dereferenceable(32) %0) unnamed_addr #6 comdat align 2 {
  %2 = alloca ptr, align 8
  store ptr %0, ptr %2, align 8, !tbaa !55
  %3 = load ptr, ptr %2, align 8
  call void @_ZN2cv4MatxIdLi4ELi1EEC2Ev(ptr noundef nonnull align 8 dereferenceable(32) %3)
  ret void
}

; Function Attrs: mustprogress uwtable
define hidden void @_ZNK3vas2ot12RgbHistogram32AccumulateRgbHistogramFromBgra32ERKN2cv3MatEPf(ptr noundef nonnull align 8 dereferenceable(20) %0, ptr noundef nonnull align 8 dereferenceable(96) %1, ptr noundef %2) #3 align 2 {
  %4 = alloca ptr, align 8
  %5 = alloca ptr, align 8
  %6 = alloca ptr, align 8
  %7 = alloca i32, align 4
  %8 = alloca i32, align 4
  %9 = alloca ptr, align 8
  %10 = alloca i32, align 4
  %11 = alloca i32, align 4
  %12 = alloca i32, align 4
  %13 = alloca i32, align 4
  %14 = alloca i32, align 4
  store ptr %0, ptr %4, align 8, !tbaa !3
  store ptr %1, ptr %5, align 8, !tbaa !16
  store ptr %2, ptr %6, align 8, !tbaa !18
  %15 = load ptr, ptr %4, align 8
  call void @llvm.lifetime.start.p0(i64 4, ptr %7) #8
  store i32 0, ptr %7, align 4, !tbaa !8
  br label %16

16:                                               ; preds = %86, %3
  %17 = load i32, ptr %7, align 4, !tbaa !8
  %18 = load ptr, ptr %5, align 8, !tbaa !16
  %19 = getelementptr inbounds nuw %"class.cv::Mat", ptr %18, i32 0, i32 2
  %20 = load i32, ptr %19, align 8, !tbaa !36
  %21 = icmp slt i32 %17, %20
  br i1 %21, label %23, label %22

22:                                               ; preds = %16
  store i32 2, ptr %8, align 4
  call void @llvm.lifetime.end.p0(i64 4, ptr %7) #8
  br label %89

23:                                               ; preds = %16
  call void @llvm.lifetime.start.p0(i64 8, ptr %9) #8
  %24 = load ptr, ptr %5, align 8, !tbaa !16
  %25 = load i32, ptr %7, align 4, !tbaa !8
  %26 = call noundef ptr @_ZNK2cv3Mat3ptrINS_3VecIhLi4EEEEEPKT_i(ptr noundef nonnull align 8 dereferenceable(96) %24, i32 noundef %25)
  store ptr %26, ptr %9, align 8, !tbaa !46
  call void @llvm.lifetime.start.p0(i64 4, ptr %10) #8
  store i32 0, ptr %10, align 4, !tbaa !8
  br label %27

27:                                               ; preds = %82, %23
  %28 = load i32, ptr %10, align 4, !tbaa !8
  %29 = load ptr, ptr %5, align 8, !tbaa !16
  %30 = getelementptr inbounds nuw %"class.cv::Mat", ptr %29, i32 0, i32 3
  %31 = load i32, ptr %30, align 4, !tbaa !39
  %32 = icmp slt i32 %28, %31
  br i1 %32, label %34, label %33

33:                                               ; preds = %27
  store i32 5, ptr %8, align 4
  call void @llvm.lifetime.end.p0(i64 4, ptr %10) #8
  br label %85

34:                                               ; preds = %27
  call void @llvm.lifetime.start.p0(i64 4, ptr %11) #8
  %35 = load ptr, ptr %9, align 8, !tbaa !46
  %36 = load i32, ptr %10, align 4, !tbaa !8
  %37 = sext i32 %36 to i64
  %38 = getelementptr inbounds %"class.cv::Vec.2", ptr %35, i64 %37
  %39 = call noundef nonnull align 1 dereferenceable(1) ptr @_ZNK2cv3VecIhLi4EEixEi(ptr noundef nonnull align 1 dereferenceable(4) %38, i32 noundef 0)
  %40 = load i8, ptr %39, align 1, !tbaa !40
  %41 = zext i8 %40 to i32
  %42 = getelementptr inbounds nuw %"class.vas::ot::RgbHistogram", ptr %15, i32 0, i32 1
  %43 = load i32, ptr %42, align 8, !tbaa !12
  %44 = sdiv i32 %41, %43
  store i32 %44, ptr %11, align 4, !tbaa !8
  call void @llvm.lifetime.start.p0(i64 4, ptr %12) #8
  %45 = load ptr, ptr %9, align 8, !tbaa !46
  %46 = load i32, ptr %10, align 4, !tbaa !8
  %47 = sext i32 %46 to i64
  %48 = getelementptr inbounds %"class.cv::Vec.2", ptr %45, i64 %47
  %49 = call noundef nonnull align 1 dereferenceable(1) ptr @_ZNK2cv3VecIhLi4EEixEi(ptr noundef nonnull align 1 dereferenceable(4) %48, i32 noundef 1)
  %50 = load i8, ptr %49, align 1, !tbaa !40
  %51 = zext i8 %50 to i32
  %52 = getelementptr inbounds nuw %"class.vas::ot::RgbHistogram", ptr %15, i32 0, i32 1
  %53 = load i32, ptr %52, align 8, !tbaa !12
  %54 = sdiv i32 %51, %53
  store i32 %54, ptr %12, align 4, !tbaa !8
  call void @llvm.lifetime.start.p0(i64 4, ptr %13) #8
  %55 = load ptr, ptr %9, align 8, !tbaa !46
  %56 = load i32, ptr %10, align 4, !tbaa !8
  %57 = sext i32 %56 to i64
  %58 = getelementptr inbounds %"class.cv::Vec.2", ptr %55, i64 %57
  %59 = call noundef nonnull align 1 dereferenceable(1) ptr @_ZNK2cv3VecIhLi4EEixEi(ptr noundef nonnull align 1 dereferenceable(4) %58, i32 noundef 2)
  %60 = load i8, ptr %59, align 1, !tbaa !40
  %61 = zext i8 %60 to i32
  %62 = getelementptr inbounds nuw %"class.vas::ot::RgbHistogram", ptr %15, i32 0, i32 1
  %63 = load i32, ptr %62, align 8, !tbaa !12
  %64 = sdiv i32 %61, %63
  store i32 %64, ptr %13, align 4, !tbaa !8
  call void @llvm.lifetime.start.p0(i64 4, ptr %14) #8
  %65 = getelementptr inbounds nuw %"class.vas::ot::RgbHistogram", ptr %15, i32 0, i32 2
  %66 = load i32, ptr %65, align 4, !tbaa !14
  %67 = getelementptr inbounds nuw %"class.vas::ot::RgbHistogram", ptr %15, i32 0, i32 2
  %68 = load i32, ptr %67, align 4, !tbaa !14
  %69 = load i32, ptr %11, align 4, !tbaa !8
  %70 = mul nsw i32 %68, %69
  %71 = load i32, ptr %12, align 4, !tbaa !8
  %72 = add nsw i32 %70, %71
  %73 = mul nsw i32 %66, %72
  %74 = load i32, ptr %13, align 4, !tbaa !8
  %75 = add nsw i32 %73, %74
  store i32 %75, ptr %14, align 4, !tbaa !8
  %76 = load ptr, ptr %6, align 8, !tbaa !18
  %77 = load i32, ptr %14, align 4, !tbaa !8
  %78 = sext i32 %77 to i64
  %79 = getelementptr inbounds float, ptr %76, i64 %78
  %80 = load float, ptr %79, align 4, !tbaa !41
  %81 = fadd float %80, 1.000000e+00
  store float %81, ptr %79, align 4, !tbaa !41
  call void @llvm.lifetime.end.p0(i64 4, ptr %14) #8
  call void @llvm.lifetime.end.p0(i64 4, ptr %13) #8
  call void @llvm.lifetime.end.p0(i64 4, ptr %12) #8
  call void @llvm.lifetime.end.p0(i64 4, ptr %11) #8
  br label %82

82:                                               ; preds = %34
  %83 = load i32, ptr %10, align 4, !tbaa !8
  %84 = add nsw i32 %83, 1
  store i32 %84, ptr %10, align 4, !tbaa !8
  br label %27, !llvm.loop !48

85:                                               ; preds = %33
  call void @llvm.lifetime.end.p0(i64 8, ptr %9) #8
  br label %86

86:                                               ; preds = %85
  %87 = load i32, ptr %7, align 4, !tbaa !8
  %88 = add nsw i32 %87, 1
  store i32 %88, ptr %7, align 4, !tbaa !8
  br label %16, !llvm.loop !49

89:                                               ; preds = %22
  ret void
}

; Function Attrs: inlinehint mustprogress nounwind uwtable
define linkonce_odr hidden noundef ptr @_ZN2cv3Mat3ptrIfEEPT_i(ptr noundef nonnull align 8 dereferenceable(96) %0, i32 noundef %1) #7 comdat align 2 {
  %3 = alloca ptr, align 8
  %4 = alloca i32, align 4
  store ptr %0, ptr %3, align 8, !tbaa !16
  store i32 %1, ptr %4, align 4, !tbaa !8
  %5 = load ptr, ptr %3, align 8
  %6 = getelementptr inbounds nuw %"class.cv::Mat", ptr %5, i32 0, i32 4
  %7 = load ptr, ptr %6, align 8, !tbaa !24
  %8 = getelementptr inbounds nuw %"class.cv::Mat", ptr %5, i32 0, i32 11
  %9 = getelementptr inbounds nuw %"struct.cv::MatStep", ptr %8, i32 0, i32 0
  %10 = load ptr, ptr %9, align 8, !tbaa !33
  %11 = getelementptr inbounds i64, ptr %10, i64 0
  %12 = load i64, ptr %11, align 8, !tbaa !34
  %13 = load i32, ptr %4, align 4, !tbaa !8
  %14 = sext i32 %13 to i64
  %15 = mul i64 %12, %14
  %16 = getelementptr inbounds nuw i8, ptr %7, i64 %15
  ret ptr %16
}

; Function Attrs: inlinehint mustprogress uwtable
define linkonce_odr hidden void @_ZN2cv7Scalar_IdEC2Ed(ptr noundef nonnull align 8 dereferenceable(32) %0, double noundef %1) unnamed_addr #6 comdat align 2 {
  %3 = alloca ptr, align 8
  %4 = alloca double, align 8
  store ptr %0, ptr %3, align 8, !tbaa !20
  store double %1, ptr %4, align 8, !tbaa !22
  %5 = load ptr, ptr %3, align 8
  call void @_ZN2cv3VecIdLi4EEC2Ev(ptr noundef nonnull align 8 dereferenceable(32) %5)
  %6 = load double, ptr %4, align 8, !tbaa !22
  %7 = getelementptr inbounds nuw %"class.cv::Matx", ptr %5, i32 0, i32 0
  %8 = getelementptr inbounds [4 x double], ptr %7, i64 0, i64 0
  store double %6, ptr %8, align 8, !tbaa !22
  %9 = getelementptr inbounds nuw %"class.cv::Matx", ptr %5, i32 0, i32 0
  %10 = getelementptr inbounds [4 x double], ptr %9, i64 0, i64 3
  store double 0.000000e+00, ptr %10, align 8, !tbaa !22
  %11 = getelementptr inbounds nuw %"class.cv::Matx", ptr %5, i32 0, i32 0
  %12 = getelementptr inbounds [4 x double], ptr %11, i64 0, i64 2
  store double 0.000000e+00, ptr %12, align 8, !tbaa !22
  %13 = getelementptr inbounds nuw %"class.cv::Matx", ptr %5, i32 0, i32 0
  %14 = getelementptr inbounds [4 x double], ptr %13, i64 0, i64 1
  store double 0.000000e+00, ptr %14, align 8, !tbaa !22
  ret void
}

; Function Attrs: mustprogress uwtable
define hidden void @_ZN3vas2ot12RgbHistogram17ComputeFromBgra32ERKN2cv3MatEPS3_(ptr noundef nonnull align 8 dereferenceable(20) %0, ptr noundef nonnull align 8 dereferenceable(96) %1, ptr noundef %2) unnamed_addr #3 align 2 {
  %4 = alloca ptr, align 8
  %5 = alloca ptr, align 8
  %6 = alloca ptr, align 8
  %7 = alloca %"class.cv::Scalar_", align 8
  %8 = alloca ptr, align 8
  store ptr %0, ptr %4, align 8, !tbaa !3
  store ptr %1, ptr %5, align 8, !tbaa !16
  store ptr %2, ptr %6, align 8, !tbaa !16
  %9 = load ptr, ptr %4, align 8
  %10 = load ptr, ptr %6, align 8, !tbaa !16
  %11 = getelementptr inbounds nuw %"class.vas::ot::RgbHistogram", ptr %9, i32 0, i32 3
  %12 = load i32, ptr %11, align 8, !tbaa !15
  call void @_ZN2cv3Mat6createEiii(ptr noundef nonnull align 8 dereferenceable(96) %10, i32 noundef 1, i32 noundef %12, i32 noundef 5)
  call void @llvm.lifetime.start.p0(i64 32, ptr %7) #8
  call void @_ZN2cv7Scalar_IdEC2Ed(ptr noundef nonnull align 8 dereferenceable(32) %7, double noundef 0.000000e+00)
  %13 = load ptr, ptr %6, align 8, !tbaa !16
  %14 = call noundef nonnull align 8 dereferenceable(96) ptr @_ZN2cv3MataSERKNS_7Scalar_IdEE(ptr noundef nonnull align 8 dereferenceable(96) %13, ptr noundef nonnull align 8 dereferenceable(32) %7)
  call void @llvm.lifetime.end.p0(i64 32, ptr %7) #8
  call void @llvm.lifetime.start.p0(i64 8, ptr %8) #8
  %15 = load ptr, ptr %6, align 8, !tbaa !16
  %16 = call noundef ptr @_ZN2cv3Mat3ptrIfEEPT_i(ptr noundef nonnull align 8 dereferenceable(96) %15, i32 noundef 0)
  store ptr %16, ptr %8, align 8, !tbaa !18
  %17 = load ptr, ptr %5, align 8, !tbaa !16
  %18 = load ptr, ptr %8, align 8, !tbaa !18
  call void @_ZNK3vas2ot12RgbHistogram32AccumulateRgbHistogramFromBgra32ERKN2cv3MatEPf(ptr noundef nonnull align 8 dereferenceable(20) %9, ptr noundef nonnull align 8 dereferenceable(96) %17, ptr noundef %18)
  call void @llvm.lifetime.end.p0(i64 8, ptr %8) #8
  ret void
}